target datalayout = "e-m:e-p270:32:32-p271:32:32-p272:64:64-i64:64-i128:128-f80:128-n8:16:32:64-S128"
target triple = "x86_64-pc-linux-gnu"

%struct.Vector3 = type { float, float, float }
%struct.Color = type { i8, i8, i8, i8 }

; Function Attrs: nounwind uwtable
define void @DrawTriangleStrip3D(ptr noundef %0, i32 noundef %1, i32 %2) #0 {
  %4 = alloca %struct.Color, align 1
  %5 = alloca ptr, align 8
  %6 = alloca i32, align 4
  %7 = alloca i32, align 4
  store i32 %2, ptr %4, align 1
  store ptr %0, ptr %5, align 8
  store i32 %1, ptr %6, align 4
  %8 = load i32, ptr %6, align 4
  %9 = icmp slt i32 %8, 3
  br i1 %9, label %10, label %11

10:                                               ; preds = %3
  br label %156

11:                                               ; preds = %3
  call void @rlBegin(i32 noundef 4)
  %12 = getelementptr inbounds nuw %struct.Color, ptr %4, i32 0, i32 0
  %13 = load i8, ptr %12, align 1
  %14 = getelementptr inbounds nuw %struct.Color, ptr %4, i32 0, i32 1
  %15 = load i8, ptr %14, align 1
  %16 = getelementptr inbounds nuw %struct.Color, ptr %4, i32 0, i32 2
  %17 = load i8, ptr %16, align 1
  %18 = getelementptr inbounds nuw %struct.Color, ptr %4, i32 0, i32 3
  %19 = load i8, ptr %18, align 1
  call void @rlColor4ub(i8 noundef zeroext %13, i8 noundef zeroext %15, i8 noundef zeroext %17, i8 noundef zeroext %19)
  call void @llvm.lifetime.start.p0(i64 4, ptr %7) #16
  store i32 2, ptr %7, align 4
  br label %20

20:                                               ; preds = %152, %11
  %21 = load i32, ptr %7, align 4
  %22 = load i32, ptr %6, align 4
  %23 = icmp slt i32 %21, %22
  br i1 %23, label %25, label %24

24:                                               ; preds = %20
  call void @llvm.lifetime.end.p0(i64 4, ptr %7) #16
  br label %155

25:                                               ; preds = %20
  %26 = load i32, ptr %7, align 4
  %27 = srem i32 %26, 2
  %28 = icmp eq i32 %27, 0
  br i1 %28, label %29, label %90

29:                                               ; preds = %25
  %30 = load ptr, ptr %5, align 8
  %31 = load i32, ptr %7, align 4
  %32 = sext i32 %31 to i64
  %33 = getelementptr inbounds %struct.Vector3, ptr %30, i64 %32
  %34 = getelementptr inbounds nuw %struct.Vector3, ptr %33, i32 0, i32 0
  %35 = load float, ptr %34, align 4
  %36 = load ptr, ptr %5, align 8
  %37 = load i32, ptr %7, align 4
  %38 = sext i32 %37 to i64
  %39 = getelementptr inbounds %struct.Vector3, ptr %36, i64 %38
  %40 = getelementptr inbounds nuw %struct.Vector3, ptr %39, i32 0, i32 1
  %41 = load float, ptr %40, align 4
  %42 = load ptr, ptr %5, align 8
  %43 = load i32, ptr %7, align 4
  %44 = sext i32 %43 to i64
  %45 = getelementptr inbounds %struct.Vector3, ptr %42, i64 %44
  %46 = getelementptr inbounds nuw %struct.Vector3, ptr %45, i32 0, i32 2
  %47 = load float, ptr %46, align 4
  call void @rlVertex3f(float noundef %35, float noundef %41, float noundef %47)
  %48 = load ptr, ptr %5, align 8
  %49 = load i32, ptr %7, align 4
  %50 = sub nsw i32 %49, 2
  %51 = sext i32 %50 to i64
  %52 = getelementptr inbounds %struct.Vector3, ptr %48, i64 %51
  %53 = getelementptr inbounds nuw %struct.Vector3, ptr %52, i32 0, i32 0
  %54 = load float, ptr %53, align 4
  %55 = load ptr, ptr %5, align 8
  %56 = load i32, ptr %7, align 4
  %57 = sub nsw i32 %56, 2
  %58 = sext i32 %57 to i64
  %59 = getelementptr inbounds %struct.Vector3, ptr %55, i64 %58
  %60 = getelementptr inbounds nuw %struct.Vector3, ptr %59, i32 0, i32 1
  %61 = load float, ptr %60, align 4
  %62 = load ptr, ptr %5, align 8
  %63 = load i32, ptr %7, align 4
  %64 = sub nsw i32 %63, 2
  %65 = sext i32 %64 to i64
  %66 = getelementptr inbounds %struct.Vector3, ptr %62, i64 %65
  %67 = getelementptr inbounds nuw %struct.Vector3, ptr %66, i32 0, i32 2
  %68 = load float, ptr %67, align 4
  call void @rlVertex3f(float noundef %54, float noundef %61, float noundef %68)
  %69 = load ptr, ptr %5, align 8
  %70 = load i32, ptr %7, align 4
  %71 = sub nsw i32 %70, 1
  %72 = sext i32 %71 to i64
  %73 = getelementptr inbounds %struct.Vector3, ptr %69, i64 %72
  %74 = getelementptr inbounds nuw %struct.Vector3, ptr %73, i32 0, i32 0
  %75 = load float, ptr %74, align 4
  %76 = load ptr, ptr %5, align 8
  %77 = load i32, ptr %7, align 4
  %78 = sub nsw i32 %77, 1
  %79 = sext i32 %78 to i64
  %80 = getelementptr inbounds %struct.Vector3, ptr %76, i64 %79
  %81 = getelementptr inbounds nuw %struct.Vector3, ptr %80, i32 0, i32 1
  %82 = load float, ptr %81, align 4
  %83 = load ptr, ptr %5, align 8
  %84 = load i32, ptr %7, align 4
  %85 = sub nsw i32 %84, 1
  %86 = sext i32 %85 to i64
  %87 = getelementptr inbounds %struct.Vector3, ptr %83, i64 %86
  %88 = getelementptr inbounds nuw %struct.Vector3, ptr %87, i32 0, i32 2
  %89 = load float, ptr %88, align 4
  call void @rlVertex3f(float noundef %75, float noundef %82, float noundef %89)
  br label %151

90:                                               ; preds = %25
  %91 = load ptr, ptr %5, align 8
  %92 = load i32, ptr %7, align 4
  %93 = sext i32 %92 to i64
  %94 = getelementptr inbounds %struct.Vector3, ptr %91, i64 %93
  %95 = getelementptr inbounds nuw %struct.Vector3, ptr %94, i32 0, i32 0
  %96 = load float, ptr %95, align 4
  %97 = load ptr, ptr %5, align 8
  %98 = load i32, ptr %7, align 4
  %99 = sext i32 %98 to i64
  %100 = getelementptr inbounds %struct.Vector3, ptr %97, i64 %99
  %101 = getelementptr inbounds nuw %struct.Vector3, ptr %100, i32 0, i32 1
  %102 = load float, ptr %101, align 4
  %103 = load ptr, ptr %5, align 8
  %104 = load i32, ptr %7, align 4
  %105 = sext i32 %104 to i64
  %106 = getelementptr inbounds %struct.Vector3, ptr %103, i64 %105
  %107 = getelementptr inbounds nuw %struct.Vector3, ptr %106, i32 0, i32 2
  %108 = load float, ptr %107, align 4
  call void @rlVertex3f(float noundef %96, float noundef %102, float noundef %108)
  %109 = load ptr, ptr %5, align 8
  %110 = load i32, ptr %7, align 4
  %111 = sub nsw i32 %110, 1
  %112 = sext i32 %111 to i64
  %113 = getelementptr inbounds %struct.Vector3, ptr %109, i64 %112
  %114 = getelementptr inbounds nuw %struct.Vector3, ptr %113, i32 0, i32 0
  %115 = load float, ptr %114, align 4
  %116 = load ptr, ptr %5, align 8
  %117 = load i32, ptr %7, align 4
  %118 = sub nsw i32 %117, 1
  %119 = sext i32 %118 to i64
  %120 = getelementptr inbounds %struct.Vector3, ptr %116, i64 %119
  %121 = getelementptr inbounds nuw %struct.Vector3, ptr %120, i32 0, i32 1
  %122 = load float, ptr %121, align 4
  %123 = load ptr, ptr %5, align 8
  %124 = load i32, ptr %7, align 4
  %125 = sub nsw i32 %124, 1
  %126 = sext i32 %125 to i64
  %127 = getelementptr inbounds %struct.Vector3, ptr %123, i64 %126
  %128 = getelementptr inbounds nuw %struct.Vector3, ptr %127, i32 0, i32 2
  %129 = load float, ptr %128, align 4
  call void @rlVertex3f(float noundef %115, float noundef %122, float noundef %129)
  %130 = load ptr, ptr %5, align 8
  %131 = load i32, ptr %7, align 4
  %132 = sub nsw i32 %131, 2
  %133 = sext i32 %132 to i64
  %134 = getelementptr inbounds %struct.Vector3, ptr %130, i64 %133
  %135 = getelementptr inbounds nuw %struct.Vector3, ptr %134, i32 0, i32 0
  %136 = load float, ptr %135, align 4
  %137 = load ptr, ptr %5, align 8
  %138 = load i32, ptr %7, align 4
  %139 = sub nsw i32 %138, 2
  %140 = sext i32 %139 to i64
  %141 = getelementptr inbounds %struct.Vector3, ptr %137, i64 %140
  %142 = getelementptr inbounds nuw %struct.Vector3, ptr %141, i32 0, i32 1
  %143 = load float, ptr %142, align 4
  %144 = load ptr, ptr %5, align 8
  %145 = load i32, ptr %7, align 4
  %146 = sub nsw i32 %145, 2
  %147 = sext i32 %146 to i64
  %148 = getelementptr inbounds %struct.Vector3, ptr %144, i64 %147
  %149 = getelementptr inbounds nuw %struct.Vector3, ptr %148, i32 0, i32 2
  %150 = load float, ptr %149, align 4
  call void @rlVertex3f(float noundef %136, float noundef %143, float noundef %150)
  br label %151

151:                                              ; preds = %90, %29
  br label %152

152:                                              ; preds = %151
  %153 = load i32, ptr %7, align 4
  %154 = add nsw i32 %153, 1
  store i32 %154, ptr %7, align 4
  br label %20

155:                                              ; preds = %24
  call void @rlEnd()
  br label %156

156:                                              ; preds = %155, %10
  ret void
}