; Function Attrs: nounwind uwtable
define void @DrawTriangleStrip3D(ptr noundef readonly captures(none) %0, i32 noundef %1, i32 %2) local_unnamed_addr #0 {
  %4 = icmp slt i32 %1, 3
  br i1 %4, label %28, label %5

5:                                                ; preds = %3
  %.sroa.4.0.extract.shift = lshr i32 %2, 24
  %.sroa.4.0.extract.trunc = trunc nuw i32 %.sroa.4.0.extract.shift to i8
  %.sroa.3.0.extract.shift = lshr i32 %2, 16
  %.sroa.3.0.extract.trunc = trunc i32 %.sroa.3.0.extract.shift to i8
  %.sroa.2.0.extract.shift = lshr i32 %2, 8
  %.sroa.2.0.extract.trunc = trunc i32 %.sroa.2.0.extract.shift to i8
  %.sroa.0.0.extract.trunc = trunc i32 %2 to i8
  tail call void @rlBegin(i32 noundef 4) #57
  tail call void @rlColor4ub(i8 noundef zeroext %.sroa.0.0.extract.trunc, i8 noundef zeroext %.sroa.2.0.extract.trunc, i8 noundef zeroext %.sroa.3.0.extract.trunc, i8 noundef zeroext %.sroa.4.0.extract.trunc) #57
  %wide.trip.count = zext nneg i32 %1 to i64
  br label %7

6:                                                ; preds = %7
  tail call void @rlEnd() #57
  br label %28

7:                                                ; preds = %5, %7
  %indvars.iv = phi i64 [ 2, %5 ], [ %indvars.iv.next, %7 ]
  %8 = and i64 %indvars.iv, 1
  %9 = icmp eq i64 %8, 0
  %10 = getelementptr inbounds nuw %struct.Vector3, ptr %0, i64 %indvars.iv
  %11 = load float, ptr %10, align 4
  %12 = getelementptr inbounds nuw i8, ptr %10, i64 4
  %13 = load float, ptr %12, align 4
  %14 = getelementptr inbounds nuw i8, ptr %10, i64 8
  %15 = load float, ptr %14, align 4
  tail call void @rlVertex3f(float noundef %11, float noundef %13, float noundef %15) #57
  %. = select i1 %9, i64 -24, i64 -12
  %.59 = select i1 %9, i64 -20, i64 -8
  %.60 = select i1 %9, i64 -16, i64 -4
  %.61 = select i1 %9, i64 -12, i64 -24
  %.62 = select i1 %9, i64 -8, i64 -20
  %.63 = select i1 %9, i64 -4, i64 -16
  %16 = getelementptr i8, ptr %10, i64 %.
  %17 = load float, ptr %16, align 4
  %18 = getelementptr i8, ptr %10, i64 %.59
  %19 = load float, ptr %18, align 4
  %20 = getelementptr i8, ptr %10, i64 %.60
  %21 = load float, ptr %20, align 4
  tail call void @rlVertex3f(float noundef %17, float noundef %19, float noundef %21) #57
  %22 = getelementptr i8, ptr %10, i64 %.61
  %23 = load float, ptr %22, align 4
  %24 = getelementptr i8, ptr %10, i64 %.62
  %25 = load float, ptr %24, align 4
  %26 = getelementptr i8, ptr %10, i64 %.63
  %27 = load float, ptr %26, align 4
  tail call void @rlVertex3f(float noundef %23, float noundef %25, float noundef %27) #57
  %indvars.iv.next = add nuw nsw i64 %indvars.iv, 1
  %exitcond.not = icmp eq i64 %indvars.iv.next, %wide.trip.count
  br i1 %exitcond.not, label %6, label %7

28:                                               ; preds = %3, %6
  ret void
}